target datalayout = "e-m:e-p270:32:32-p271:32:32-p272:64:64-i64:64-i128:128-f80:128-n8:16:32:64-S128"
target triple = "x86_64-pc-linux-gnu"

%struct.nghttp2_bufs = type { ptr, ptr, ptr, i64, i64, i64, i64, i64 }

; Function Attrs: nounwind uwtable
define hidden void @nghttp2_bufs_wrap_free(ptr noundef %0) #0 {
  %2 = alloca ptr, align 8
  store ptr %0, ptr %2, align 8, !tbaa !3
  %3 = load ptr, ptr %2, align 8, !tbaa !3
  %4 = icmp eq ptr %3, null
  br i1 %4, label %5, label %6

5:                                                ; preds = %1
  br label %18

6:                                                ; preds = %1
  %7 = load ptr, ptr %2, align 8, !tbaa !3
  %8 = getelementptr inbounds nuw %struct.nghttp2_bufs, ptr %7, i32 0, i32 0
  %9 = load ptr, ptr %8, align 8, !tbaa !24
  %10 = icmp ne ptr %9, null
  br i1 %10, label %11, label %18

11:                                               ; preds = %6
  %12 = load ptr, ptr %2, align 8, !tbaa !3
  %13 = getelementptr inbounds nuw %struct.nghttp2_bufs, ptr %12, i32 0, i32 2
  %14 = load ptr, ptr %13, align 8, !tbaa !19
  %15 = load ptr, ptr %2, align 8, !tbaa !3
  %16 = getelementptr inbounds nuw %struct.nghttp2_bufs, ptr %15, i32 0, i32 0
  %17 = load ptr, ptr %16, align 8, !tbaa !24
  call void @nghttp2_mem_free(ptr noundef %14, ptr noundef %17)
  br label %18

18:                                               ; preds = %5, %11, %6
  ret void
}