; Function Attrs: nounwind uwtable
define hidden void @nghttp2_bufs_wrap_free(ptr noundef readonly %0) local_unnamed_addr #1 {
  %2 = icmp eq ptr %0, null
  br i1 %2, label %8, label %3

3:                                                ; preds = %1
  %4 = load ptr, ptr %0, align 8, !tbaa !18
  %.not = icmp eq ptr %4, null
  br i1 %.not, label %8, label %5

5:                                                ; preds = %3
  %6 = getelementptr inbounds nuw i8, ptr %0, i64 16
  %7 = load ptr, ptr %6, align 8, !tbaa !13
  tail call void @nghttp2_mem_free(ptr noundef %7, ptr noundef nonnull %4) #10
  br label %8

8:                                                ; preds = %1, %5, %3
  ret void
}